; ModuleID = 'source-C-CXX/41/1575.c'
source_filename = "source-C-CXX/41/1575.c"
target datalayout = "e-m:e-p270:32:32-p271:32:32-p272:64:64-i64:64-f80:128-n8:16:32:64-S128"
target triple = "x86_64-pc-linux-gnu"

@.str = private unnamed_addr constant [3 x i8] c"%d\00", align 1
@.str.1 = private unnamed_addr constant [4 x i8] c"%d \00", align 1

; Function Attrs: nofree nounwind sspstrong uwtable
define dso_local i32 @main() local_unnamed_addr #0 {
  %1 = alloca i32, align 4
  %2 = alloca i32, align 4
  %3 = alloca [100000 x i32], align 16
  %4 = bitcast i32* %1 to i8*
  call void @llvm.lifetime.start.p0i8(i64 4, i8* nonnull %4) #3
  %5 = bitcast i32* %2 to i8*
  call void @llvm.lifetime.start.p0i8(i64 4, i8* nonnull %5) #3
  %6 = bitcast [100000 x i32]* %3 to i8*
  call void @llvm.lifetime.start.p0i8(i64 400000, i8* nonnull %6) #3
  %7 = call i32 (i8*, ...) @__isoc99_scanf(i8* getelementptr inbounds ([3 x i8], [3 x i8]* @.str, i64 0, i64 0), i32* nonnull %1)
  %8 = load i32, i32* %1, align 4, !tbaa !5
  %9 = icmp sgt i32 %8, 0
  br i1 %9, label %15, label %10

10:                                               ; preds = %15, %0
  %11 = call i32 (i8*, ...) @__isoc99_scanf(i8* getelementptr inbounds ([3 x i8], [3 x i8]* @.str, i64 0, i64 0), i32* nonnull %2)
  %12 = load i32, i32* %2, align 4
  %13 = load i32, i32* %1, align 4, !tbaa !5
  %14 = icmp sgt i32 %13, 0
  br i1 %14, label %25, label %114

15:                                               ; preds = %0, %15
  %16 = phi i64 [ %19, %15 ], [ 0, %0 ]
  %17 = getelementptr inbounds [100000 x i32], [100000 x i32]* %3, i64 0, i64 %16
  %18 = call i32 (i8*, ...) @__isoc99_scanf(i8* getelementptr inbounds ([3 x i8], [3 x i8]* @.str, i64 0, i64 0), i32* nonnull %17)
  %19 = add nuw nsw i64 %16, 1
  %20 = load i32, i32* %1, align 4, !tbaa !5
  %21 = sext i32 %20 to i64
  %22 = icmp slt i64 %19, %21
  br i1 %22, label %15, label %10, !llvm.loop !9

23:                                               ; preds = %109
  %24 = icmp sgt i32 %110, 0
  br i1 %24, label %116, label %114

25:                                               ; preds = %10, %109
  %26 = phi i32 [ %110, %109 ], [ %13, %10 ]
  %27 = phi i32 [ %112, %109 ], [ 0, %10 ]
  %28 = sext i32 %27 to i64
  %29 = getelementptr inbounds [100000 x i32], [100000 x i32]* %3, i64 0, i64 %28
  %30 = load i32, i32* %29, align 4, !tbaa !5
  %31 = icmp eq i32 %30, %12
  br i1 %31, label %32, label %109

32:                                               ; preds = %25
  %33 = add nsw i32 %26, -1
  %34 = icmp slt i32 %27, %33
  br i1 %34, label %35, label %100

35:                                               ; preds = %32
  %36 = sext i32 %33 to i64
  %37 = sub nsw i64 %36, %28
  %38 = icmp ult i64 %37, 8
  br i1 %38, label %98, label %39

39:                                               ; preds = %35
  %40 = and i64 %37, -8
  %41 = add nsw i64 %40, %28
  %42 = add nsw i64 %40, -8
  %43 = lshr exact i64 %42, 3
  %44 = add nuw nsw i64 %43, 1
  %45 = and i64 %44, 1
  %46 = icmp eq i64 %42, 0
  br i1 %46, label %80, label %47

47:                                               ; preds = %39
  %48 = and i64 %44, 4611686018427387902
  br label %49

49:                                               ; preds = %49, %47
  %50 = phi i64 [ 0, %47 ], [ %77, %49 ]
  %51 = phi i64 [ %48, %47 ], [ %78, %49 ]
  %52 = add i64 %50, %28
  %53 = add nsw i64 %52, 1
  %54 = getelementptr inbounds [100000 x i32], [100000 x i32]* %3, i64 0, i64 %53
  %55 = bitcast i32* %54 to <4 x i32>*
  %56 = load <4 x i32>, <4 x i32>* %55, align 4, !tbaa !5
  %57 = getelementptr inbounds i32, i32* %54, i64 4
  %58 = bitcast i32* %57 to <4 x i32>*
  %59 = load <4 x i32>, <4 x i32>* %58, align 4, !tbaa !5
  %60 = getelementptr inbounds [100000 x i32], [100000 x i32]* %3, i64 0, i64 %52
  %61 = bitcast i32* %60 to <4 x i32>*
  store <4 x i32> %56, <4 x i32>* %61, align 4, !tbaa !5
  %62 = getelementptr inbounds i32, i32* %60, i64 4
  %63 = bitcast i32* %62 to <4 x i32>*
  store <4 x i32> %59, <4 x i32>* %63, align 4, !tbaa !5
  %64 = or i64 %50, 8
  %65 = add i64 %64, %28
  %66 = add nsw i64 %65, 1
  %67 = getelementptr inbounds [100000 x i32], [100000 x i32]* %3, i64 0, i64 %66
  %68 = bitcast i32* %67 to <4 x i32>*
  %69 = load <4 x i32>, <4 x i32>* %68, align 4, !tbaa !5
  %70 = getelementptr inbounds i32, i32* %67, i64 4
  %71 = bitcast i32* %70 to <4 x i32>*
  %72 = load <4 x i32>, <4 x i32>* %71, align 4, !tbaa !5
  %73 = getelementptr inbounds [100000 x i32], [100000 x i32]* %3, i64 0, i64 %65
  %74 = bitcast i32* %73 to <4 x i32>*
  store <4 x i32> %69, <4 x i32>* %74, align 4, !tbaa !5
  %75 = getelementptr inbounds i32, i32* %73, i64 4
  %76 = bitcast i32* %75 to <4 x i32>*
  store <4 x i32> %72, <4 x i32>* %76, align 4, !tbaa !5
  %77 = add nuw i64 %50, 16
  %78 = add i64 %51, -2
  %79 = icmp eq i64 %78, 0
  br i1 %79, label %80, label %49, !llvm.loop !11

80:                                               ; preds = %49, %39
  %81 = phi i64 [ 0, %39 ], [ %77, %49 ]
  %82 = icmp eq i64 %45, 0
  br i1 %82, label %96, label %83

83:                                               ; preds = %80
  %84 = add i64 %81, %28
  %85 = add nsw i64 %84, 1
  %86 = getelementptr inbounds [100000 x i32], [100000 x i32]* %3, i64 0, i64 %85
  %87 = bitcast i32* %86 to <4 x i32>*
  %88 = load <4 x i32>, <4 x i32>* %87, align 4, !tbaa !5
  %89 = getelementptr inbounds i32, i32* %86, i64 4
  %90 = bitcast i32* %89 to <4 x i32>*
  %91 = load <4 x i32>, <4 x i32>* %90, align 4, !tbaa !5
  %92 = getelementptr inbounds [100000 x i32], [100000 x i32]* %3, i64 0, i64 %84
  %93 = bitcast i32* %92 to <4 x i32>*
  store <4 x i32> %88, <4 x i32>* %93, align 4, !tbaa !5
  %94 = getelementptr inbounds i32, i32* %92, i64 4
  %95 = bitcast i32* %94 to <4 x i32>*
  store <4 x i32> %91, <4 x i32>* %95, align 4, !tbaa !5
  br label %96

96:                                               ; preds = %80, %83
  %97 = icmp eq i64 %37, %40
  br i1 %97, label %100, label %98

98:                                               ; preds = %35, %96
  %99 = phi i64 [ %28, %35 ], [ %41, %96 ]
  br label %102

100:                                              ; preds = %102, %96, %32
  %101 = add nsw i32 %27, -1
  store i32 %33, i32* %1, align 4, !tbaa !5
  br label %109

102:                                              ; preds = %98, %102
  %103 = phi i64 [ %104, %102 ], [ %99, %98 ]
  %104 = add nsw i64 %103, 1
  %105 = getelementptr inbounds [100000 x i32], [100000 x i32]* %3, i64 0, i64 %104
  %106 = load i32, i32* %105, align 4, !tbaa !5
  %107 = getelementptr inbounds [100000 x i32], [100000 x i32]* %3, i64 0, i64 %103
  store i32 %106, i32* %107, align 4, !tbaa !5
  %108 = icmp eq i64 %104, %36
  br i1 %108, label %100, label %102, !llvm.loop !13

109:                                              ; preds = %25, %100
  %110 = phi i32 [ %33, %100 ], [ %26, %25 ]
  %111 = phi i32 [ %101, %100 ], [ %27, %25 ]
  %112 = add nsw i32 %111, 1
  %113 = icmp slt i32 %112, %110
  br i1 %113, label %25, label %23, !llvm.loop !15

114:                                              ; preds = %116, %10, %23
  %115 = call i32 (i8*, ...) @__isoc99_scanf(i8* getelementptr inbounds ([3 x i8], [3 x i8]* @.str, i64 0, i64 0), i32* nonnull %1)
  call void @llvm.lifetime.end.p0i8(i64 400000, i8* nonnull %6) #3
  call void @llvm.lifetime.end.p0i8(i64 4, i8* nonnull %5) #3
  call void @llvm.lifetime.end.p0i8(i64 4, i8* nonnull %4) #3
  ret i32 0

116:                                              ; preds = %23, %116
  %117 = phi i64 [ %126, %116 ], [ 0, %23 ]
  %118 = phi i32 [ %127, %116 ], [ %110, %23 ]
  %119 = add nsw i32 %118, -1
  %120 = zext i32 %119 to i64
  %121 = icmp eq i64 %117, %120
  %122 = getelementptr inbounds [100000 x i32], [100000 x i32]* %3, i64 0, i64 %117
  %123 = load i32, i32* %122, align 4, !tbaa !5
  %124 = select i1 %121, i8* getelementptr inbounds ([3 x i8], [3 x i8]* @.str, i64 0, i64 0), i8* getelementptr inbounds ([4 x i8], [4 x i8]* @.str.1, i64 0, i64 0)
  %125 = call i32 (i8*, ...) @printf(i8* nonnull dereferenceable(1) %124, i32 %123)
  %126 = add nuw nsw i64 %117, 1
  %127 = load i32, i32* %1, align 4, !tbaa !5
  %128 = sext i32 %127 to i64
  %129 = icmp slt i64 %126, %128
  br i1 %129, label %116, label %114, !llvm.loop !16
}

; Function Attrs: argmemonly mustprogress nofree nosync nounwind willreturn
declare void @llvm.lifetime.start.p0i8(i64 immarg, i8* nocapture) #1

; Function Attrs: nofree nounwind
declare noundef i32 @__isoc99_scanf(i8* nocapture noundef readonly, ...) local_unnamed_addr #2

; Function Attrs: argmemonly mustprogress nofree nosync nounwind willreturn
declare void @llvm.lifetime.end.p0i8(i64 immarg, i8* nocapture) #1

; Function Attrs: nofree nounwind
declare noundef i32 @printf(i8* nocapture noundef readonly, ...) local_unnamed_addr #2


!llvm.module.flags = !{!0, !1, !2, !3}
!llvm.ident = !{!4}

!0 = !{i32 1, !"wchar_size", i32 4}
!1 = !{i32 7, !"PIC Level", i32 2}
!2 = !{i32 7, !"PIE Level", i32 2}
!3 = !{i32 7, !"uwtable", i32 1}
!4 = !{!"clang version 13.0.0"}
!5 = !{!6, !6, i64 0}
!6 = !{!"int", !7, i64 0}
!7 = !{!"omnipotent char", !8, i64 0}
!8 = !{!"Simple C/C++ TBAA"}
!9 = distinct !{!9, !10}
!10 = !{!"llvm.loop.mustprogress"}
!11 = distinct !{!11, !10, !12}
!12 = !{!"llvm.loop.isvectorized", i32 1}
!13 = distinct !{!13, !10, !14, !12}
!14 = !{!"llvm.loop.unroll.runtime.disable"}
!15 = distinct !{!15, !10}
!16 = distinct !{!16, !10}
